; ModuleID = 'source-C-CXX/29/2815.cpp'
source_filename = "source-C-CXX/29/2815.cpp"
target datalayout = "e-m:e-p270:32:32-p271:32:32-p272:64:64-i64:64-f80:128-n8:16:32:64-S128"
target triple = "x86_64-pc-linux-gnu"

%"class.std::ios_base::Init" = type { i8 }
%"class.std::basic_istream" = type { i32 (...)**, i64, %"class.std::basic_ios" }
%"class.std::basic_ios" = type { %"class.std::ios_base", %"class.std::basic_ostream"*, i8, i8, %"class.std::basic_streambuf"*, %"class.std::ctype"*, %"class.std::num_put"*, %"class.std::num_get"* }
%"class.std::ios_base" = type { i32 (...)**, i64, i64, i32, i32, i32, %"struct.std::ios_base::_Callback_list"*, %"struct.std::ios_base::_Words", [8 x %"struct.std::ios_base::_Words"], i32, %"struct.std::ios_base::_Words"*, %"class.std::locale" }
%"struct.std::ios_base::_Callback_list" = type { %"struct.std::ios_base::_Callback_list"*, void (i32, %"class.std::ios_base"*, i32)*, i32, i32 }
%"struct.std::ios_base::_Words" = type { i8*, i64 }
%"class.std::locale" = type { %"class.std::locale::_Impl"* }
%"class.std::locale::_Impl" = type { i32, %"class.std::locale::facet"**, i64, %"class.std::locale::facet"**, i8** }
%"class.std::locale::facet" = type <{ i32 (...)**, i32, [4 x i8] }>
%"class.std::basic_ostream" = type { i32 (...)**, %"class.std::basic_ios" }
%"class.std::basic_streambuf" = type { i32 (...)**, i8*, i8*, i8*, i8*, i8*, i8*, %"class.std::locale" }
%"class.std::ctype" = type <{ %"class.std::locale::facet.base", [4 x i8], %struct.__locale_struct*, i8, [7 x i8], i32*, i32*, i16*, i8, [256 x i8], [256 x i8], i8, [6 x i8] }>
%"class.std::locale::facet.base" = type <{ i32 (...)**, i32 }>
%struct.__locale_struct = type { [13 x %struct.__locale_data*], i16*, i32*, i32*, [13 x i8*] }
%struct.__locale_data = type opaque
%"class.std::num_put" = type { %"class.std::locale::facet.base", [4 x i8] }
%"class.std::num_get" = type { %"class.std::locale::facet.base", [4 x i8] }

@_ZStL8__ioinit = internal global %"class.std::ios_base::Init" zeroinitializer, align 1
@__dso_handle = external hidden global i8
@_ZSt3cin = external global %"class.std::basic_istream", align 8
@_ZSt4cout = external global %"class.std::basic_ostream", align 8
@llvm.global_ctors = appending global [1 x { i32, void ()*, i8* }] [{ i32, void ()*, i8* } { i32 65535, void ()* @_GLOBAL__sub_I_2815.cpp, i8* null }]

declare void @_ZNSt8ios_base4InitC1Ev(%"class.std::ios_base::Init"* nonnull align 1 dereferenceable(1)) unnamed_addr #0

; Function Attrs: nounwind
declare void @_ZNSt8ios_base4InitD1Ev(%"class.std::ios_base::Init"* nonnull align 1 dereferenceable(1)) unnamed_addr #1

; Function Attrs: nofree nounwind
declare i32 @__cxa_atexit(void (i8*)*, i8*, i8*) local_unnamed_addr #2

; Function Attrs: mustprogress norecurse sspstrong uwtable
define dso_local i32 @main() local_unnamed_addr #3 {
  %1 = alloca i32, align 4
  %2 = bitcast i32* %1 to i8*
  call void @llvm.lifetime.start.p0i8(i64 4, i8* nonnull %2) #9
  %3 = call nonnull align 8 dereferenceable(16) %"class.std::basic_istream"* @_ZNSirsERi(%"class.std::basic_istream"* nonnull align 8 dereferenceable(16) @_ZSt3cin, i32* nonnull align 4 dereferenceable(4) %1)
  %4 = load i32, i32* %1, align 4, !tbaa !5
  %5 = icmp sgt i32 %4, 0
  br i1 %5, label %6, label %10

6:                                                ; preds = %0
  %7 = add nsw i32 %4, -1
  %8 = call i32 @llvm.umin.i32(i32 %7, i32 9)
  %9 = add nuw nsw i32 %8, 2
  br label %71

10:                                               ; preds = %84, %0
  %11 = phi i32 [ 1, %0 ], [ %9, %84 ]
  %12 = phi i32 [ 0, %0 ], [ %85, %84 ]
  %13 = icmp sgt i32 %11, %4
  br i1 %13, label %108, label %14

14:                                               ; preds = %10
  %15 = add i32 %4, 1
  %16 = sub i32 %15, %11
  %17 = icmp ult i32 %16, 8
  br i1 %17, label %68, label %18

18:                                               ; preds = %14
  %19 = and i32 %16, -8
  %20 = add i32 %11, %19
  %21 = insertelement <4 x i32> <i32 poison, i32 0, i32 0, i32 0>, i32 %12, i32 0
  %22 = insertelement <4 x i32> poison, i32 %11, i32 0
  %23 = shufflevector <4 x i32> %22, <4 x i32> poison, <4 x i32> zeroinitializer
  %24 = add <4 x i32> %23, <i32 0, i32 1, i32 2, i32 3>
  br label %25

25:                                               ; preds = %25, %18
  %26 = phi i32 [ 0, %18 ], [ %61, %25 ]
  %27 = phi <4 x i32> [ %21, %18 ], [ %57, %25 ]
  %28 = phi <4 x i32> [ zeroinitializer, %18 ], [ %60, %25 ]
  %29 = phi <4 x i32> [ %24, %18 ], [ %62, %25 ]
  %30 = add <4 x i32> %29, <i32 4, i32 4, i32 4, i32 4>
  %31 = urem <4 x i32> %29, <i32 7, i32 7, i32 7, i32 7>
  %32 = urem <4 x i32> %30, <i32 7, i32 7, i32 7, i32 7>
  %33 = icmp eq <4 x i32> %31, zeroinitializer
  %34 = icmp eq <4 x i32> %32, zeroinitializer
  %35 = udiv <4 x i32> %29, <i32 10, i32 10, i32 10, i32 10>
  %36 = udiv <4 x i32> %30, <i32 10, i32 10, i32 10, i32 10>
  %37 = add nsw <4 x i32> %29, <i32 -7, i32 -7, i32 -7, i32 -7>
  %38 = add <4 x i32> %29, <i32 -3, i32 -3, i32 -3, i32 -3>
  %39 = srem <4 x i32> %37, <i32 10, i32 10, i32 10, i32 10>
  %40 = srem <4 x i32> %38, <i32 10, i32 10, i32 10, i32 10>
  %41 = icmp eq <4 x i32> %39, zeroinitializer
  %42 = icmp eq <4 x i32> %40, zeroinitializer
  %43 = urem <4 x i32> %35, <i32 7, i32 7, i32 7, i32 7>
  %44 = urem <4 x i32> %36, <i32 7, i32 7, i32 7, i32 7>
  %45 = icmp eq <4 x i32> %43, zeroinitializer
  %46 = icmp eq <4 x i32> %44, zeroinitializer
  %47 = select <4 x i1> %41, <4 x i1> <i1 true, i1 true, i1 true, i1 true>, <4 x i1> %45
  %48 = select <4 x i1> %42, <4 x i1> <i1 true, i1 true, i1 true, i1 true>, <4 x i1> %46
  %49 = mul nsw <4 x i32> %29, %29
  %50 = mul nsw <4 x i32> %30, %30
  %51 = xor <4 x i1> %33, <i1 true, i1 true, i1 true, i1 true>
  %52 = xor <4 x i1> %34, <i1 true, i1 true, i1 true, i1 true>
  %53 = select <4 x i1> %51, <4 x i1> %47, <4 x i1> zeroinitializer
  %54 = select <4 x i1> %52, <4 x i1> %48, <4 x i1> zeroinitializer
  %55 = select <4 x i1> %33, <4 x i1> <i1 true, i1 true, i1 true, i1 true>, <4 x i1> %53
  %56 = select <4 x i1> %55, <4 x i32> zeroinitializer, <4 x i32> %49
  %57 = add <4 x i32> %27, %56
  %58 = select <4 x i1> %34, <4 x i1> <i1 true, i1 true, i1 true, i1 true>, <4 x i1> %54
  %59 = select <4 x i1> %58, <4 x i32> zeroinitializer, <4 x i32> %50
  %60 = add <4 x i32> %28, %59
  %61 = add nuw i32 %26, 8
  %62 = add <4 x i32> %29, <i32 8, i32 8, i32 8, i32 8>
  %63 = icmp eq i32 %61, %19
  br i1 %63, label %64, label %25, !llvm.loop !9

64:                                               ; preds = %25
  %65 = add <4 x i32> %60, %57
  %66 = call i32 @llvm.vector.reduce.add.v4i32(<4 x i32> %65)
  %67 = icmp eq i32 %16, %19
  br i1 %67, label %108, label %68

68:                                               ; preds = %14, %64
  %69 = phi i32 [ %12, %14 ], [ %66, %64 ]
  %70 = phi i32 [ %11, %14 ], [ %20, %64 ]
  br label %88

71:                                               ; preds = %6, %84
  %72 = phi i32 [ %85, %84 ], [ 0, %6 ]
  %73 = phi i32 [ %86, %84 ], [ 1, %6 ]
  %74 = trunc i32 %73 to i8
  %75 = urem i8 %74, 7
  %76 = icmp eq i8 %75, 0
  br i1 %76, label %84, label %77

77:                                               ; preds = %71
  %78 = add i8 %74, -7
  %79 = srem i8 %78, 10
  %80 = icmp eq i8 %79, 0
  br i1 %80, label %84, label %81

81:                                               ; preds = %77
  %82 = mul nuw nsw i32 %73, %73
  %83 = add nsw i32 %72, %82
  br label %84

84:                                               ; preds = %81, %77, %71
  %85 = phi i32 [ %83, %81 ], [ %72, %77 ], [ %72, %71 ]
  %86 = add nuw nsw i32 %73, 1
  %87 = icmp eq i32 %86, %9
  br i1 %87, label %10, label %71, !llvm.loop !12

88:                                               ; preds = %68, %104
  %89 = phi i32 [ %105, %104 ], [ %69, %68 ]
  %90 = phi i32 [ %106, %104 ], [ %70, %68 ]
  %91 = urem i32 %90, 7
  %92 = icmp eq i32 %91, 0
  br i1 %92, label %104, label %93

93:                                               ; preds = %88
  %94 = udiv i32 %90, 10
  %95 = add nsw i32 %90, -7
  %96 = srem i32 %95, 10
  %97 = icmp eq i32 %96, 0
  %98 = urem i32 %94, 7
  %99 = icmp eq i32 %98, 0
  %100 = select i1 %97, i1 true, i1 %99
  br i1 %100, label %104, label %101

101:                                              ; preds = %93
  %102 = mul nsw i32 %90, %90
  %103 = add nsw i32 %89, %102
  br label %104

104:                                              ; preds = %101, %93, %88
  %105 = phi i32 [ %103, %101 ], [ %89, %93 ], [ %89, %88 ]
  %106 = add nuw i32 %90, 1
  %107 = icmp eq i32 %90, %4
  br i1 %107, label %108, label %88, !llvm.loop !13

108:                                              ; preds = %104, %64, %10
  %109 = phi i32 [ %12, %10 ], [ %66, %64 ], [ %105, %104 ]
  %110 = call nonnull align 8 dereferenceable(8) %"class.std::basic_ostream"* @_ZNSolsEi(%"class.std::basic_ostream"* nonnull align 8 dereferenceable(8) @_ZSt4cout, i32 %109)
  %111 = bitcast %"class.std::basic_ostream"* %110 to i8**
  %112 = load i8*, i8** %111, align 8, !tbaa !15
  %113 = getelementptr i8, i8* %112, i64 -24
  %114 = bitcast i8* %113 to i64*
  %115 = load i64, i64* %114, align 8
  %116 = bitcast %"class.std::basic_ostream"* %110 to i8*
  %117 = add nsw i64 %115, 240
  %118 = getelementptr inbounds i8, i8* %116, i64 %117
  %119 = bitcast i8* %118 to %"class.std::ctype"**
  %120 = load %"class.std::ctype"*, %"class.std::ctype"** %119, align 8, !tbaa !17
  %121 = icmp eq %"class.std::ctype"* %120, null
  br i1 %121, label %122, label %123

122:                                              ; preds = %108
  call void @_ZSt16__throw_bad_castv() #10
  unreachable

123:                                              ; preds = %108
  %124 = getelementptr inbounds %"class.std::ctype", %"class.std::ctype"* %120, i64 0, i32 8
  %125 = load i8, i8* %124, align 8, !tbaa !21
  %126 = icmp eq i8 %125, 0
  br i1 %126, label %130, label %127

127:                                              ; preds = %123
  %128 = getelementptr inbounds %"class.std::ctype", %"class.std::ctype"* %120, i64 0, i32 9, i64 10
  %129 = load i8, i8* %128, align 1, !tbaa !23
  br label %136

130:                                              ; preds = %123
  call void @_ZNKSt5ctypeIcE13_M_widen_initEv(%"class.std::ctype"* nonnull align 8 dereferenceable(570) %120)
  %131 = bitcast %"class.std::ctype"* %120 to i8 (%"class.std::ctype"*, i8)***
  %132 = load i8 (%"class.std::ctype"*, i8)**, i8 (%"class.std::ctype"*, i8)*** %131, align 8, !tbaa !15
  %133 = getelementptr inbounds i8 (%"class.std::ctype"*, i8)*, i8 (%"class.std::ctype"*, i8)** %132, i64 6
  %134 = load i8 (%"class.std::ctype"*, i8)*, i8 (%"class.std::ctype"*, i8)** %133, align 8
  %135 = call signext i8 %134(%"class.std::ctype"* nonnull align 8 dereferenceable(570) %120, i8 signext 10)
  br label %136

136:                                              ; preds = %127, %130
  %137 = phi i8 [ %129, %127 ], [ %135, %130 ]
  %138 = call nonnull align 8 dereferenceable(8) %"class.std::basic_ostream"* @_ZNSo3putEc(%"class.std::basic_ostream"* nonnull align 8 dereferenceable(8) %110, i8 signext %137)
  %139 = call nonnull align 8 dereferenceable(8) %"class.std::basic_ostream"* @_ZNSo5flushEv(%"class.std::basic_ostream"* nonnull align 8 dereferenceable(8) %138)
  call void @llvm.lifetime.end.p0i8(i64 4, i8* nonnull %2) #9
  ret i32 0
}

; Function Attrs: argmemonly mustprogress nofree nosync nounwind willreturn
declare void @llvm.lifetime.start.p0i8(i64 immarg, i8* nocapture) #4

declare nonnull align 8 dereferenceable(16) %"class.std::basic_istream"* @_ZNSirsERi(%"class.std::basic_istream"* nonnull align 8 dereferenceable(16), i32* nonnull align 4 dereferenceable(4)) local_unnamed_addr #0

declare nonnull align 8 dereferenceable(8) %"class.std::basic_ostream"* @_ZNSolsEi(%"class.std::basic_ostream"* nonnull align 8 dereferenceable(8), i32) local_unnamed_addr #0

; Function Attrs: argmemonly mustprogress nofree nosync nounwind willreturn
declare void @llvm.lifetime.end.p0i8(i64 immarg, i8* nocapture) #4

declare nonnull align 8 dereferenceable(8) %"class.std::basic_ostream"* @_ZNSo3putEc(%"class.std::basic_ostream"* nonnull align 8 dereferenceable(8), i8 signext) local_unnamed_addr #0

declare nonnull align 8 dereferenceable(8) %"class.std::basic_ostream"* @_ZNSo5flushEv(%"class.std::basic_ostream"* nonnull align 8 dereferenceable(8)) local_unnamed_addr #0

; Function Attrs: noreturn
declare void @_ZSt16__throw_bad_castv() local_unnamed_addr #5

declare void @_ZNKSt5ctypeIcE13_M_widen_initEv(%"class.std::ctype"* nonnull align 8 dereferenceable(570)) local_unnamed_addr #0

; Function Attrs: sspstrong uwtable
define internal void @_GLOBAL__sub_I_2815.cpp() #6 section ".text.startup" {
  tail call void @_ZNSt8ios_base4InitC1Ev(%"class.std::ios_base::Init"* nonnull align 1 dereferenceable(1) @_ZStL8__ioinit)
  %1 = tail call i32 @__cxa_atexit(void (i8*)* bitcast (void (%"class.std::ios_base::Init"*)* @_ZNSt8ios_base4InitD1Ev to void (i8*)*), i8* getelementptr inbounds (%"class.std::ios_base::Init", %"class.std::ios_base::Init"* @_ZStL8__ioinit, i64 0, i32 0), i8* nonnull @__dso_handle) #9
  ret void
}

; Function Attrs: nofree nosync nounwind readnone speculatable willreturn
declare i32 @llvm.umin.i32(i32, i32) #7

; Function Attrs: nofree nosync nounwind readnone willreturn
declare i32 @llvm.vector.reduce.add.v4i32(<4 x i32>) #8


!llvm.module.flags = !{!0, !1, !2, !3}
!llvm.ident = !{!4}

!0 = !{i32 1, !"wchar_size", i32 4}
!1 = !{i32 7, !"PIC Level", i32 2}
!2 = !{i32 7, !"PIE Level", i32 2}
!3 = !{i32 7, !"uwtable", i32 1}
!4 = !{!"clang version 13.0.0"}
!5 = !{!6, !6, i64 0}
!6 = !{!"int", !7, i64 0}
!7 = !{!"omnipotent char", !8, i64 0}
!8 = !{!"Simple C++ TBAA"}
!9 = distinct !{!9, !10, !11}
!10 = !{!"llvm.loop.mustprogress"}
!11 = !{!"llvm.loop.isvectorized", i32 1}
!12 = distinct !{!12, !10}
!13 = distinct !{!13, !10, !14, !11}
!14 = !{!"llvm.loop.unroll.runtime.disable"}
!15 = !{!16, !16, i64 0}
!16 = !{!"vtable pointer", !8, i64 0}
!17 = !{!18, !19, i64 240}
!18 = !{!"_ZTSSt9basic_iosIcSt11char_traitsIcEE", !19, i64 216, !7, i64 224, !20, i64 225, !19, i64 232, !19, i64 240, !19, i64 248, !19, i64 256}
!19 = !{!"any pointer", !7, i64 0}
!20 = !{!"bool", !7, i64 0}
!21 = !{!22, !7, i64 56}
!22 = !{!"_ZTSSt5ctypeIcE", !19, i64 16, !20, i64 24, !19, i64 32, !19, i64 40, !19, i64 48, !7, i64 56, !7, i64 57, !7, i64 313, !7, i64 569}
!23 = !{!7, !7, i64 0}
